target datalayout = "e-m:e-p270:32:32-p271:32:32-p272:64:64-i64:64-i128:128-f80:128-n8:16:32:64-S128"
target triple = "x86_64-pc-linux-gnu"

; Function Attrs: nounwind uwtable
define internal void @Int24_To_Int32(ptr noundef %0, i32 noundef %1, ptr noundef %2, i32 noundef %3, i32 noundef %4, ptr noundef %5) #0 {
  %7 = alloca ptr, align 8
  %8 = alloca i32, align 4
  %9 = alloca ptr, align 8
  %10 = alloca i32, align 4
  %11 = alloca i32, align 4
  %12 = alloca ptr, align 8
  %13 = alloca ptr, align 8
  %14 = alloca ptr, align 8
  %15 = alloca i32, align 4
  store ptr %0, ptr %7, align 8, !tbaa !70
  store i32 %1, ptr %8, align 4, !tbaa !71
  store ptr %2, ptr %9, align 8, !tbaa !70
  store i32 %3, ptr %10, align 4, !tbaa !71
  store i32 %4, ptr %11, align 4, !tbaa !71
  store ptr %5, ptr %12, align 8, !tbaa !73
  call void @llvm.lifetime.start.p0(i64 8, ptr %13) #4
  %16 = load ptr, ptr %9, align 8, !tbaa !70
  store ptr %16, ptr %13, align 8, !tbaa !87
  call void @llvm.lifetime.start.p0(i64 8, ptr %14) #4
  %17 = load ptr, ptr %7, align 8, !tbaa !70
  store ptr %17, ptr %14, align 8, !tbaa !77
  call void @llvm.lifetime.start.p0(i64 4, ptr %15) #4
  br label %18

18:                                               ; preds = %22, %6
  %19 = load i32, ptr %11, align 4, !tbaa !71
  %20 = add i32 %19, -1
  store i32 %20, ptr %11, align 4, !tbaa !71
  %21 = icmp ne i32 %19, 0
  br i1 %21, label %22, label %53

22:                                               ; preds = %18
  %23 = load ptr, ptr %13, align 8, !tbaa !87
  %24 = getelementptr inbounds i8, ptr %23, i64 0
  %25 = load i8, ptr %24, align 1, !tbaa !89
  %26 = zext i8 %25 to i32
  %27 = shl i32 %26, 8
  store i32 %27, ptr %15, align 4, !tbaa !71
  %28 = load i32, ptr %15, align 4, !tbaa !71
  %29 = load ptr, ptr %13, align 8, !tbaa !87
  %30 = getelementptr inbounds i8, ptr %29, i64 1
  %31 = load i8, ptr %30, align 1, !tbaa !89
  %32 = zext i8 %31 to i32
  %33 = shl i32 %32, 16
  %34 = or i32 %28, %33
  store i32 %34, ptr %15, align 4, !tbaa !71
  %35 = load i32, ptr %15, align 4, !tbaa !71
  %36 = load ptr, ptr %13, align 8, !tbaa !87
  %37 = getelementptr inbounds i8, ptr %36, i64 2
  %38 = load i8, ptr %37, align 1, !tbaa !89
  %39 = zext i8 %38 to i32
  %40 = shl i32 %39, 24
  %41 = or i32 %35, %40
  store i32 %41, ptr %15, align 4, !tbaa !71
  %42 = load i32, ptr %15, align 4, !tbaa !71
  %43 = load ptr, ptr %14, align 8, !tbaa !77
  store i32 %42, ptr %43, align 4, !tbaa !71
  %44 = load i32, ptr %10, align 4, !tbaa !71
  %45 = mul nsw i32 %44, 3
  %46 = load ptr, ptr %13, align 8, !tbaa !87
  %47 = sext i32 %45 to i64
  %48 = getelementptr inbounds i8, ptr %46, i64 %47
  store ptr %48, ptr %13, align 8, !tbaa !87
  %49 = load i32, ptr %8, align 4, !tbaa !71
  %50 = load ptr, ptr %14, align 8, !tbaa !77
  %51 = sext i32 %49 to i64
  %52 = getelementptr inbounds i32, ptr %50, i64 %51
  store ptr %52, ptr %14, align 8, !tbaa !77
  br label %18, !llvm.loop !119

53:                                               ; preds = %18
  call void @llvm.lifetime.end.p0(i64 4, ptr %15) #4
  call void @llvm.lifetime.end.p0(i64 8, ptr %14) #4
  call void @llvm.lifetime.end.p0(i64 8, ptr %13) #4
  ret void
}