; Function Attrs: nofree norecurse nosync nounwind memory(argmem: readwrite) uwtable
define internal void @Int24_To_Int32(ptr noundef writeonly captures(none) %0, i32 noundef %1, ptr noundef readonly captures(none) %2, i32 noundef %3, i32 noundef %4, ptr readnone captures(none) %5) #2 {
  %.not15 = icmp eq i32 %4, 0
  br i1 %.not15, label %._crit_edge, label %.lr.ph

.lr.ph:                                           ; preds = %6
  %7 = mul nsw i32 %3, 3
  %8 = sext i32 %7 to i64
  %9 = sext i32 %1 to i64
  br label %10

10:                                               ; preds = %.lr.ph, %10
  %.018 = phi i32 [ %4, %.lr.ph ], [ %11, %10 ]
  %.01317 = phi ptr [ %0, %.lr.ph ], [ %21, %10 ]
  %.01416 = phi ptr [ %2, %.lr.ph ], [ %20, %10 ]
  %11 = add i32 %.018, -1
  %12 = load i16, ptr %.01416, align 1
  %13 = zext i16 %12 to i32
  %14 = shl nuw nsw i32 %13, 8
  %15 = getelementptr inbounds nuw i8, ptr %.01416, i64 2
  %16 = load i8, ptr %15, align 1, !tbaa !76
  %17 = zext i8 %16 to i32
  %18 = shl nuw i32 %17, 24
  %19 = or disjoint i32 %18, %14
  store i32 %19, ptr %.01317, align 4, !tbaa !70
  %20 = getelementptr inbounds i8, ptr %.01416, i64 %8
  %21 = getelementptr inbounds i32, ptr %.01317, i64 %9
  %.not = icmp eq i32 %11, 0
  br i1 %.not, label %._crit_edge, label %10, !llvm.loop !103

._crit_edge:                                      ; preds = %10, %6
  ret void
}